(dp0
Vfullscreen_mode
p1
I0
sVorientation
p2
Vhorizontal
p3
sVfocus
p4
(lp5
I11326224
aI11322800
asVurgent
p6
I00
sVlast_split_layout
p7
Vsplith
p8
sVfloating
p9
Vauto_off
p10
sVborder
p11
Vnormal
p12
sVid
p13
I11322432
sVcurrent_border_width
p14
I-1
sVlayout
p15
Vsplith
p16
sVpercent
p17
NsVworkspace_layout
p18
Vdefault
p19
sVwindow
p20
NsVnodes
p21
(lp22
(dp23
Vfullscreen_mode
p24
I0
sVorientation
p25
Vnone
p26
sVfocus
p27
(lp28
I11325232
asVurgent
p29
I00
sVlast_split_layout
p30
Vsplith
p31
sVfloating
p32
Vauto_off
p33
sVborder
p34
Vnormal
p35
sVid
p36
I11322800
sVcurrent_border_width
p37
I-1
sVlayout
p38
Voutput
p39
sVpercent
p40
F0.5
sVworkspace_layout
p41
Vdefault
p42
sVwindow
p43
NsVnodes
p44
(lp45
(dp46
Vfullscreen_mode
p47
I0
sVorientation
p48
Vhorizontal
p49
sVfocus
p50
(lp51
I11325600
asVurgent
p52
I00
sVlast_split_layout
p53
Vsplith
p54
sVfloating
p55
Vauto_off
p56
sVborder
p57
Vnormal
p58
sVid
p59
I11325232
sVcurrent_border_width
p60
I-1
sVlayout
p61
Vsplith
p62
sVpercent
p63
NsVworkspace_layout
p64
Vdefault
p65
sVwindow
p66
NsVnodes
p67
(lp68
(dp69
Vfullscreen_mode
p70
I1
sVorientation
p71
Vnone
p72
sVfocus
p73
(lp74
sVurgent
p75
I00
sVnum
p76
I-1
sVlast_split_layout
p77
Vsplith
p78
sVfloating
p79
Vauto_off
p80
sVborder
p81
Vnormal
p82
sVid
p83
I11325600
sVcurrent_border_width
p84
I-1
sVlayout
p85
Vsplith
p86
sVpercent
p87
NsVworkspace_layout
p88
Vdefault
p89
sVwindow
p90
NsVnodes
p91
(lp92
sVtype
p93
I4
sVswallows
p94
(lp95
sVfocused
p96
I00
sVscratchpad_state
p97
Vnone
p98
sVrect
p99
(dp100
Vy
p101
I0
sVx
p102
I0
sVheight
p103
I0
sVwidth
p104
I0
ssVwindow_rect
p105
(dp106
g101
I0
sg102
I0
sVheight
p107
I0
sVwidth
p108
I0
ssVname
p109
V__i3_scratch
p110
sVgeometry
p111
(dp112
g101
I0
sg102
I0
sVheight
p113
I0
sVwidth
p114
I0
ssVfloating_nodes
p115
(lp116
sasVtype
p117
I2
sVswallows
p118
(lp119
sVfocused
p120
I00
sVscratchpad_state
p121
Vnone
p122
sVrect
p123
(dp124
g101
I0
sg102
I0
sVheight
p125
I0
sVwidth
p126
I0
ssVwindow_rect
p127
(dp128
g101
I0
sg102
I0
sVheight
p129
I0
sVwidth
p130
I0
ssVname
p131
Vcontent
p132
sVgeometry
p133
(dp134
g101
I0
sg102
I0
sVheight
p135
I0
sVwidth
p136
I0
ssVfloating_nodes
p137
(lp138
sasVtype
p139
I1
sVswallows
p140
(lp141
sVfocused
p142
I00
sVscratchpad_state
p143
Vnone
p144
sVrect
p145
(dp146
g101
I0
sg102
I0
sVheight
p147
I1280
sVwidth
p148
I2048
ssVwindow_rect
p149
(dp150
g101
I0
sg102
I0
sVheight
p151
I0
sVwidth
p152
I0
ssVname
p153
V__i3
p154
sVgeometry
p155
(dp156
g101
I0
sg102
I0
sVheight
p157
I0
sVwidth
p158
I0
ssVfloating_nodes
p159
(lp160
sa(dp161
Vfullscreen_mode
p162
I0
sVorientation
p163
Vnone
p164
sVfocus
p165
(lp166
I11327312
aI11326736
aI11345280
asVurgent
p167
I00
sVlast_split_layout
p168
Vsplith
p169
sVfloating
p170
Vauto_off
p171
sVborder
p172
Vnormal
p173
sVid
p174
I11326224
sVcurrent_border_width
p175
I-1
sVlayout
p176
Voutput
p177
sVpercent
p178
F0.5
sVworkspace_layout
p179
Vdefault
p180
sVwindow
p181
NsVnodes
p182
(lp183
(dp184
Vfullscreen_mode
p185
I0
sVorientation
p186
Vnone
p187
sVfocus
p188
(lp189
sVurgent
p190
I00
sVlast_split_layout
p191
Vsplith
p192
sVfloating
p193
Vauto_off
p194
sVborder
p195
Vnormal
p196
sVid
p197
I11326736
sVcurrent_border_width
p198
I-1
sVlayout
p199
Vdockarea
p200
sVpercent
p201
NsVworkspace_layout
p202
Vdefault
p203
sVwindow
p204
NsVnodes
p205
(lp206
sVtype
p207
I5
sVswallows
p208
(lp209
(dp210
Vdock
p211
I2
sVinsert_where
p212
I2
sasVfocused
p213
I00
sVscratchpad_state
p214
Vnone
p215
sVrect
p216
(dp217
g101
I0
sg102
I0
sVheight
p218
I0
sVwidth
p219
I2048
ssVwindow_rect
p220
(dp221
g101
I0
sg102
I0
sVheight
p222
I0
sVwidth
p223
I0
ssVname
p224
Vtopdock
p225
sVgeometry
p226
(dp227
g101
I0
sg102
I0
sVheight
p228
I0
sVwidth
p229
I0
ssVfloating_nodes
p230
(lp231
sa(dp232
Vfullscreen_mode
p233
I0
sVorientation
p234
Vhorizontal
p235
sVfocus
p236
(lp237
I11327824
aI11408096
aI11340000
aI11342432
aI11343680
aI11430640
aI11334176
aI11432688
aI11335808
aI11352128
asVurgent
p238
I00
sVlast_split_layout
p239
Vsplith
p240
sVfloating
p241
Vauto_off
p242
sVborder
p243
Vnormal
p244
sVid
p245
I11327312
sVcurrent_border_width
p246
I-1
sVlayout
p247
Vsplith
p248
sVpercent
p249
NsVworkspace_layout
p250
Vdefault
p251
sVwindow
p252
NsVnodes
p253
(lp254
(dp255
Vfullscreen_mode
p256
I1
sVorientation
p257
Vhorizontal
p258
sVfocus
p259
(lp260
I11330064
aI11328256
asVurgent
p261
I00
sVnum
p262
I1
sVlast_split_layout
p263
Vsplith
p264
sVfloating
p265
Vauto_off
p266
sVborder
p267
Vnormal
p268
sVid
p269
I11327824
sVcurrent_border_width
p270
I-1
sVlayout
p271
Vsplith
p272
sVpercent
p273
F0.09668814767603809
sVworkspace_layout
p274
Vdefault
p275
sVwindow
p276
NsVnodes
p277
(lp278
(dp279
Vfullscreen_mode
p280
I0
sVorientation
p281
Vvertical
p282
sVfocus
p283
(lp284
I11328688
aI11329264
asVurgent
p285
I00
sVlast_split_layout
p286
Vsplitv
p287
sVfloating
p288
Vauto_off
p289
sVborder
p290
Vnormal
p291
sVid
p292
I11328256
sVcurrent_border_width
p293
I-1
sVlayout
p294
Vsplitv
p295
sVpercent
p296
F0.30000000000000004
sVworkspace_layout
p297
Vdefault
p298
sVwindow
p299
NsVnodes
p300
(lp301
(dp302
Vfullscreen_mode
p303
I0
sVorientation
p304
Vnone
p305
sVprocess
p306
S'gnome-terminal'
p307
sVfocus
p308
(lp309
sVurgent
p310
I00
sVlast_split_layout
p311
Vsplith
p312
sVfloating
p313
Vauto_off
p314
sVborder
p315
Vnormal
p316
sVid
p317
I11328688
sVcurrent_border_width
p318
I-1
sVlayout
p319
Vsplith
p320
sVpercent
p321
F0.5
sVworkspace_layout
p322
Vdefault
p323
sVwindow
p324
I23068682
sVnodes
p325
(lp326
sVtype
p327
I2
sVswallows
p328
(lp329
sVfocused
p330
I00
sVscratchpad_state
p331
Vnone
p332
sVrect
p333
(dp334
g101
I18
sg102
I0
sVheight
p335
I613
sVwidth
p336
I615
ssVwindow_rect
p337
(dp338
g101
I0
sg102
I2
sVheight
p339
I611
sVwidth
p340
I611
ssVname
p341
VTerminal
p342
sVgeometry
p343
(dp344
g101
I18
sg102
I0
sVheight
p345
I611
sVwidth
p346
I611
ssVfloating_nodes
p347
(lp348
sa(dp349
Vfullscreen_mode
p350
I0
sVorientation
p351
Vnone
p352
sg306
S'gnome-terminal'
p353
sVfocus
p354
(lp355
sVurgent
p356
I00
sVlast_split_layout
p357
Vsplith
p358
sVfloating
p359
Vauto_off
p360
sVborder
p361
Vnormal
p362
sVid
p363
I11329264
sVcurrent_border_width
p364
I-1
sVlayout
p365
Vsplith
p366
sVpercent
p367
F0.5
sVworkspace_layout
p368
Vdefault
p369
sVwindow
p370
I23079828
sVnodes
p371
(lp372
sVtype
p373
I2
sVswallows
p374
(lp375
sVfocused
p376
I00
sVscratchpad_state
p377
Vnone
p378
sVrect
p379
(dp380
g101
I649
sg102
I0
sVheight
p381
I612
sVwidth
p382
I615
ssVwindow_rect
p383
(dp384
g101
I0
sg102
I2
sVheight
p385
I610
sVwidth
p386
I611
ssVname
p387
VTerminal
p388
sVgeometry
p389
(dp390
g101
I649
sg102
I0
sVheight
p391
I610
sVwidth
p392
I611
ssVfloating_nodes
p393
(lp394
sasVtype
p395
I2
sVswallows
p396
(lp397
sVfocused
p398
I00
sVscratchpad_state
p399
Vnone
p400
sVrect
p401
(dp402
g101
I0
sg102
I0
sVheight
p403
I1261
sVwidth
p404
I615
ssVwindow_rect
p405
(dp406
g101
I0
sg102
I0
sVheight
p407
I0
sVwidth
p408
I0
ssVname
p409
V#aa0000
p410
sVgeometry
p411
(dp412
g101
I0
sg102
I0
sVheight
p413
I0
sVwidth
p414
I0
ssVfloating_nodes
p415
(lp416
sa(dp417
Vfullscreen_mode
p418
I0
sVorientation
p419
Vvertical
p420
sVfocus
p421
(lp422
I11427168
aI11330544
asVurgent
p423
I00
sVlast_split_layout
p424
Vsplitv
p425
sVfloating
p426
Vauto_off
p427
sVborder
p428
Vnormal
p429
sVid
p430
I11330064
sVcurrent_border_width
p431
I-1
sVlayout
p432
Vsplitv
p433
sVpercent
p434
F0.7
sVworkspace_layout
p435
Vdefault
p436
sVwindow
p437
NsVnodes
p438
(lp439
(dp440
Vfullscreen_mode
p441
I0
sVorientation
p442
Vnone
p443
sg306
S'gnome-terminal'
p444
sVfocus
p445
(lp446
sVurgent
p447
I00
sVlast_split_layout
p448
Vsplith
p449
sVfloating
p450
Vauto_off
p451
sVborder
p452
Vnormal
p453
sVid
p454
I11330544
sVcurrent_border_width
p455
I-1
sVlayout
p456
Vsplith
p457
sVpercent
p458
F0.20000000000000004
sVworkspace_layout
p459
Vdefault
p460
sVwindow
p461
I23079457
sVnodes
p462
(lp463
sVtype
p464
I2
sVswallows
p465
(lp466
sVfocused
p467
I00
sVscratchpad_state
p468
Vnone
p469
sVrect
p470
(dp471
g101
I18
sg102
I615
sVheight
p472
I235
sVwidth
p473
I1433
ssVwindow_rect
p474
(dp475
g101
I0
sg102
I2
sVheight
p476
I233
sVwidth
p477
I1429
ssVname
p478
VTerminal
p479
sVgeometry
p480
(dp481
g101
I18
sg102
I615
sVheight
p482
I233
sVwidth
p483
I1429
ssVfloating_nodes
p484
(lp485
sa(dp486
Vfullscreen_mode
p487
I0
sVorientation
p488
Vhorizontal
p489
sVfocus
p490
(lp491
I11331120
aI11427920
asVurgent
p492
I00
sVlast_split_layout
p493
Vsplith
p494
sVfloating
p495
Vauto_off
p496
sVborder
p497
Vnormal
p498
sVid
p499
I11427168
sVcurrent_border_width
p500
I-1
sVlayout
p501
Vsplith
p502
sVpercent
p503
F0.7999999999999999
sVworkspace_layout
p504
Vdefault
p505
sVwindow
p506
NsVnodes
p507
(lp508
(dp509
Vfullscreen_mode
p510
I0
sVorientation
p511
Vnone
p512
sg306
S'gnome-terminal'
p513
sVfocus
p514
(lp515
sVurgent
p516
I00
sVlast_split_layout
p517
Vsplith
p518
sVfloating
p519
Vauto_off
p520
sVborder
p521
Vnormal
p522
sVid
p523
I11331120
sVcurrent_border_width
p524
I-1
sVlayout
p525
Vsplith
p526
sVpercent
p527
F0.5
sVworkspace_layout
p528
Vdefault
p529
sVwindow
p530
I23090851
sVnodes
p531
(lp532
sVtype
p533
I2
sVswallows
p534
(lp535
sVfocused
p536
I01
sVscratchpad_state
p537
Vnone
p538
sVrect
p539
(dp540
g101
I271
sg102
I615
sVheight
p541
I990
sVwidth
p542
I717
ssVwindow_rect
p543
(dp544
g101
I0
sg102
I2
sVheight
p545
I988
sVwidth
p546
I713
ssVname
p547
VTerminal
p548
sVgeometry
p549
(dp550
g101
I271
sg102
I615
sVheight
p551
I988
sVwidth
p552
I1429
ssVfloating_nodes
p553
(lp554
sa(dp555
Vfullscreen_mode
p556
I0
sVorientation
p557
Vnone
p558
sg306
S'gnome-terminal'
p559
sVfocus
p560
(lp561
sVurgent
p562
I00
sVlast_split_layout
p563
Vsplith
p564
sVfloating
p565
Vauto_off
p566
sVborder
p567
Vnormal
p568
sVid
p569
I11427920
sVcurrent_border_width
p570
I-1
sVlayout
p571
Vsplith
p572
sVpercent
p573
F0.5
sVworkspace_layout
p574
Vdefault
p575
sVwindow
p576
I23117782
sVnodes
p577
(lp578
sVtype
p579
I2
sVswallows
p580
(lp581
sVfocused
p582
I00
sVscratchpad_state
p583
Vnone
p584
sVrect
p585
(dp586
g101
I271
sg102
I1332
sVheight
p587
I990
sVwidth
p588
I716
ssVwindow_rect
p589
(dp590
g101
I0
sg102
I2
sVheight
p591
I988
sVwidth
p592
I712
ssVname
p593
VTerminal
p594
sVgeometry
p595
(dp596
g101
I0
sg102
I0
sVheight
p597
I553
sVwidth
p598
I802
ssVfloating_nodes
p599
(lp600
sasVtype
p601
I2
sVswallows
p602
(lp603
sVfocused
p604
I00
sVscratchpad_state
p605
Vnone
p606
sVrect
p607
(dp608
g101
I253
sg102
I615
sVheight
p609
I1008
sVwidth
p610
I1433
ssVwindow_rect
p611
(dp612
g101
I0
sg102
I0
sVheight
p613
I0
sVwidth
p614
I0
ssVname
p615
V#ffff00
p616
sVgeometry
p617
(dp618
g101
I0
sg102
I0
sVheight
p619
I0
sVwidth
p620
I0
ssVfloating_nodes
p621
(lp622
sasVtype
p623
I2
sVswallows
p624
(lp625
sVfocused
p626
I00
sVscratchpad_state
p627
Vnone
p628
sVrect
p629
(dp630
g101
I0
sg102
I615
sVheight
p631
I1261
sVwidth
p632
I1433
ssVwindow_rect
p633
(dp634
g101
I0
sg102
I0
sVheight
p635
I0
sVwidth
p636
I0
ssVname
p637
V#aa00aa
p638
sVgeometry
p639
(dp640
g101
I0
sg102
I0
sVheight
p641
I0
sVwidth
p642
I0
ssVfloating_nodes
p643
(lp644
sasVtype
p645
I4
sVswallows
p646
(lp647
sVfocused
p648
I00
sVscratchpad_state
p649
Vnone
p650
sVrect
p651
(dp652
g101
I0
sg102
I0
sVheight
p653
I1261
sVwidth
p654
I2048
ssVwindow_rect
p655
(dp656
g101
I0
sg102
I0
sVheight
p657
I0
sVwidth
p658
I0
ssVname
p659
V1 term
p660
sVgeometry
p661
(dp662
g101
I0
sg102
I0
sVheight
p663
I0
sVwidth
p664
I0
ssVfloating_nodes
p665
(lp666
sa(dp667
Vfullscreen_mode
p668
I0
sVorientation
p669
Vhorizontal
p670
sVfocus
p671
(lp672
I11430272
asVurgent
p673
I00
sVnum
p674
I2
sVlast_split_layout
p675
Vsplith
p676
sVfloating
p677
Vauto_off
p678
sVborder
p679
Vnormal
p680
sVid
p681
I11432688
sVcurrent_border_width
p682
I-1
sVlayout
p683
Vsplith
p684
sVpercent
p685
F0.1111111111111111
sVworkspace_layout
p686
Vdefault
p687
sVwindow
p688
NsVnodes
p689
(lp690
(dp691
Vfullscreen_mode
p692
I0
sVorientation
p693
Vnone
p694
sg306
S'chromium-browser'
p695
sVfocus
p696
(lp697
sVurgent
p698
I00
sVlast_split_layout
p699
Vsplith
p700
sVfloating
p701
Vauto_off
p702
sVborder
p703
Vnormal
p704
sVid
p705
I11430272
sVcurrent_border_width
p706
I-1
sVlayout
p707
Vsplith
p708
sVpercent
p709
F1.0
sVworkspace_layout
p710
Vdefault
p711
sVwindow
p712
I35651739
sVnodes
p713
(lp714
sVtype
p715
I2
sVswallows
p716
(lp717
sVfocused
p718
I00
sVscratchpad_state
p719
Vnone
p720
sVrect
p721
(dp722
g101
I18
sg102
I0
sVheight
p723
I1243
sVwidth
p724
I2048
ssVwindow_rect
p725
(dp726
g101
I0
sg102
I2
sVheight
p727
I1241
sVwidth
p728
I2044
ssVname
p729
VPeople who use /away constantly suck ass - Chromium
p730
sVgeometry
p731
(dp732
g101
I28
sg102
I12
sVheight
p733
I1241
sVwidth
p734
I2044
ssVfloating_nodes
p735
(lp736
sasVtype
p737
I4
sVswallows
p738
(lp739
sVfocused
p740
I00
sVscratchpad_state
p741
Vnone
p742
sVrect
p743
(dp744
g101
I0
sg102
I0
sVheight
p745
I1261
sVwidth
p746
I2048
ssVwindow_rect
p747
(dp748
g101
I0
sg102
I0
sVheight
p749
I0
sVwidth
p750
I0
ssVname
p751
V2 web
p752
sVgeometry
p753
(dp754
g101
I0
sg102
I0
sVheight
p755
I0
sVwidth
p756
I0
ssVfloating_nodes
p757
(lp758
sa(dp759
Vfullscreen_mode
p760
I0
sVorientation
p761
Vhorizontal
p762
sVfocus
p763
(lp764
I11336288
aI11336832
asVurgent
p765
I00
sVnum
p766
I3
sVlast_split_layout
p767
Vsplith
p768
sVfloating
p769
Vauto_off
p770
sVborder
p771
Vnormal
p772
sVid
p773
I11335808
sVcurrent_border_width
p774
I-1
sVlayout
p775
Vsplith
p776
sVpercent
p777
F0.09668814767603809
sVworkspace_layout
p778
Vdefault
p779
sVwindow
p780
NsVnodes
p781
(lp782
(dp783
Vfullscreen_mode
p784
I0
sVorientation
p785
Vnone
p786
sg306
S'rhythmbox'
p787
sVfocus
p788
(lp789
sVurgent
p790
I00
sVlast_split_layout
p791
Vsplith
p792
sVfloating
p793
Vauto_off
p794
sVborder
p795
Vnormal
p796
sVid
p797
I11336288
sVcurrent_border_width
p798
I-1
sVlayout
p799
Vsplith
p800
sVpercent
p801
F0.7
sVworkspace_layout
p802
Vdefault
p803
sVwindow
p804
I27262983
sVnodes
p805
(lp806
sVtype
p807
I2
sVswallows
p808
(lp809
sVfocused
p810
I00
sVscratchpad_state
p811
Vnone
p812
sVrect
p813
(dp814
g101
I18
sg102
I0
sVheight
p815
I1243
sVwidth
p816
I1434
ssVwindow_rect
p817
(dp818
g101
I0
sg102
I2
sVheight
p819
I1241
sVwidth
p820
I1430
ssVname
p821
VMatteo Spedicati - Stilnox (Original Mix) (Paused)
p822
sVgeometry
p823
(dp824
g101
I18
sg102
I0
sVheight
p825
I1241
sVwidth
p826
I1430
ssVfloating_nodes
p827
(lp828
sa(dp829
Vfullscreen_mode
p830
I0
sVorientation
p831
Vnone
p832
sg306
S'gnome-terminal'
p833
sVfocus
p834
(lp835
sVurgent
p836
I00
sVlast_split_layout
p837
Vsplith
p838
sVfloating
p839
Vauto_off
p840
sVborder
p841
Vnormal
p842
sVid
p843
I11336832
sVcurrent_border_width
p844
I-1
sVlayout
p845
Vsplith
p846
sVpercent
p847
F0.30000000000000004
sVworkspace_layout
p848
Vdefault
p849
sVwindow
p850
I23068742
sVnodes
p851
(lp852
sVtype
p853
I2
sVswallows
p854
(lp855
sVfocused
p856
I00
sVscratchpad_state
p857
Vnone
p858
sVrect
p859
(dp860
g101
I18
sg102
I1434
sVheight
p861
I1243
sVwidth
p862
I614
ssVwindow_rect
p863
(dp864
g101
I0
sg102
I2
sVheight
p865
I1241
sVwidth
p866
I610
ssVname
p867
VTerminal
p868
sVgeometry
p869
(dp870
g101
I18
sg102
I1434
sVheight
p871
I1241
sVwidth
p872
I610
ssVfloating_nodes
p873
(lp874
sasVtype
p875
I4
sVswallows
p876
(lp877
sVfocused
p878
I00
sVscratchpad_state
p879
Vnone
p880
sVrect
p881
(dp882
g101
I0
sg102
I0
sVheight
p883
I1261
sVwidth
p884
I2048
ssVwindow_rect
p885
(dp886
g101
I0
sg102
I0
sVheight
p887
I0
sVwidth
p888
I0
ssVname
p889
V3 music
p890
sVgeometry
p891
(dp892
g101
I0
sg102
I0
sVheight
p893
I0
sVwidth
p894
I0
ssVfloating_nodes
p895
(lp896
sa(dp897
Vfullscreen_mode
p898
I0
sVorientation
p899
Vhorizontal
p900
sVfocus
p901
(lp902
I11433424
aI11434128
asVurgent
p903
I00
sVnum
p904
I4
sVlast_split_layout
p905
Vsplith
p906
sVfloating
p907
Vauto_off
p908
sVborder
p909
Vnormal
p910
sVid
p911
I11430640
sVcurrent_border_width
p912
I-1
sVlayout
p913
Vsplith
p914
sVpercent
p915
NsVworkspace_layout
p916
Vdefault
p917
sVwindow
p918
NsVnodes
p919
(lp920
(dp921
Vfullscreen_mode
p922
I0
sVorientation
p923
Vnone
p924
sg306
S'nautilus'
p925
sVfocus
p926
(lp927
sVurgent
p928
I00
sVlast_split_layout
p929
Vsplith
p930
sVfloating
p931
Vauto_off
p932
sVborder
p933
Vnormal
p934
sVid
p935
I11433424
sVcurrent_border_width
p936
I-1
sVlayout
p937
Vsplith
p938
sVpercent
p939
F0.5
sVworkspace_layout
p940
Vdefault
p941
sVwindow
p942
I60817559
sVnodes
p943
(lp944
sVtype
p945
I2
sVswallows
p946
(lp947
sVfocused
p948
I00
sVscratchpad_state
p949
Vnone
p950
sVrect
p951
(dp952
g101
I18
sg102
I0
sVheight
p953
I1243
sVwidth
p954
I1024
ssVwindow_rect
p955
(dp956
g101
I0
sg102
I2
sVheight
p957
I1241
sVwidth
p958
I1020
ssVname
p959
V/
p960
sVgeometry
p961
(dp962
g101
I0
sg102
I0
sVheight
p963
I1280
sVwidth
p964
I2048
ssVfloating_nodes
p965
(lp966
sa(dp967
Vfullscreen_mode
p968
I0
sVorientation
p969
Vnone
p970
sg306
S'nautilus'
p971
sVfocus
p972
(lp973
sVurgent
p974
I00
sVlast_split_layout
p975
Vsplith
p976
sVfloating
p977
Vauto_off
p978
sVborder
p979
Vnormal
p980
sVid
p981
I11434128
sVcurrent_border_width
p982
I-1
sVlayout
p983
Vsplith
p984
sVpercent
p985
F0.5
sVworkspace_layout
p986
Vdefault
p987
sVwindow
p988
I60817418
sVnodes
p989
(lp990
sVtype
p991
I2
sVswallows
p992
(lp993
sVfocused
p994
I00
sVscratchpad_state
p995
Vnone
p996
sVrect
p997
(dp998
g101
I18
sg102
I1024
sVheight
p999
I1243
sVwidth
p1000
I1024
ssVwindow_rect
p1001
(dp1002
g101
I0
sg102
I2
sVheight
p1003
I1241
sVwidth
p1004
I1020
ssVname
p1005
VDesktop
p1006
sVgeometry
p1007
(dp1008
g101
I0
sg102
I0
sVheight
p1009
I1280
sVwidth
p1010
I2048
ssVfloating_nodes
p1011
(lp1012
sasVtype
p1013
I4
sVswallows
p1014
(lp1015
sVfocused
p1016
I00
sVscratchpad_state
p1017
Vnone
p1018
sVrect
p1019
(dp1020
g101
I0
sg102
I0
sVheight
p1021
I1261
sVwidth
p1022
I2048
ssVwindow_rect
p1023
(dp1024
g101
I0
sg102
I0
sVheight
p1025
I0
sVwidth
p1026
I0
ssVname
p1027
V4 remote
p1028
sVgeometry
p1029
(dp1030
g101
I0
sg102
I0
sVheight
p1031
I0
sVwidth
p1032
I0
ssVfloating_nodes
p1033
(lp1034
sa(dp1035
Vfullscreen_mode
p1036
I0
sVorientation
p1037
Vhorizontal
p1038
sVfocus
p1039
(lp1040
I11337632
aI11332032
asVurgent
p1041
I00
sVnum
p1042
I5
sVlast_split_layout
p1043
Vsplith
p1044
sVfloating
p1045
Vauto_off
p1046
sVborder
p1047
Vnormal
p1048
sVid
p1049
I11408096
sVcurrent_border_width
p1050
I-1
sVlayout
p1051
Vsplith
p1052
sVpercent
p1053
F0.1133064230578571
sVworkspace_layout
p1054
Vdefault
p1055
sVwindow
p1056
NsVnodes
p1057
(lp1058
(dp1059
Vfullscreen_mode
p1060
I0
sVorientation
p1061
Vhorizontal
p1062
sVfocus
p1063
(lp1064
I11339312
aI11411312
asVurgent
p1065
I00
sVlast_split_layout
p1066
Vsplith
p1067
sVfloating
p1068
Vauto_off
p1069
sVborder
p1070
Vnormal
p1071
sVid
p1072
I11332032
sVcurrent_border_width
p1073
I-1
sVlayout
p1074
Vtabbed
p1075
sVpercent
p1076
F0.20000000000000004
sVworkspace_layout
p1077
Vdefault
p1078
sVwindow
p1079
NsVnodes
p1080
(lp1081
(dp1082
Vfullscreen_mode
p1083
I0
sVorientation
p1084
Vnone
p1085
sg306
S'teamspeak'
p1086
sVfocus
p1087
(lp1088
sVurgent
p1089
I00
sVlast_split_layout
p1090
Vsplith
p1091
sVfloating
p1092
Vauto_off
p1093
sVborder
p1094
Vnormal
p1095
sVid
p1096
I11411312
sVcurrent_border_width
p1097
I-1
sVlayout
p1098
Vsplith
p1099
sVpercent
p1100
F0.5
sVworkspace_layout
p1101
Vdefault
p1102
sVwindow
p1103
I52428806
sVnodes
p1104
(lp1105
sVtype
p1106
I2
sVswallows
p1107
(lp1108
sVfocused
p1109
I00
sVscratchpad_state
p1110
Vnone
p1111
sVrect
p1112
(dp1113
g101
I18
sg102
I0
sVheight
p1114
I1243
sVwidth
p1115
I410
ssVwindow_rect
p1116
(dp1117
g101
I0
sg102
I2
sVheight
p1118
I1241
sVwidth
p1119
I406
ssVname
p1120
VTeamSpeak 3
p1121
sVgeometry
p1122
(dp1123
g101
I18
sg102
I0
sVheight
p1124
I1241
sVwidth
p1125
I2044
ssVfloating_nodes
p1126
(lp1127
sa(dp1128
Vfullscreen_mode
p1129
I0
sVorientation
p1130
Vnone
p1131
sg306
S'skype'
p1132
sVfocus
p1133
(lp1134
sVurgent
p1135
I00
sVlast_split_layout
p1136
Vsplith
p1137
sVfloating
p1138
Vauto_off
p1139
sVborder
p1140
Vnormal
p1141
sVid
p1142
I11339312
sVcurrent_border_width
p1143
I-1
sVlayout
p1144
Vsplith
p1145
sVpercent
p1146
F0.5
sVworkspace_layout
p1147
Vdefault
p1148
sVwindow
p1149
I39846020
sVnodes
p1150
(lp1151
sVtype
p1152
I2
sVswallows
p1153
(lp1154
sVfocused
p1155
I00
sVscratchpad_state
p1156
Vnone
p1157
sVrect
p1158
(dp1159
g101
I18
sg102
I0
sVheight
p1160
I1243
sVwidth
p1161
I410
ssVwindow_rect
p1162
(dp1163
g101
I0
sg102
I2
sVheight
p1164
I1241
sVwidth
p1165
I406
ssVname
p1166
Vnapcae - Skype\u2122
p1167
sVgeometry
p1168
(dp1169
g101
I18
sg102
I0
sVheight
p1170
I1241
sVwidth
p1171
I2044
ssVfloating_nodes
p1172
(lp1173
sasVtype
p1174
I2
sVswallows
p1175
(lp1176
sVfocused
p1177
I00
sVscratchpad_state
p1178
Vnone
p1179
sVrect
p1180
(dp1181
g101
I0
sg102
I0
sVheight
p1182
I1261
sVwidth
p1183
I410
ssVwindow_rect
p1184
(dp1185
g101
I0
sg102
I0
sVheight
p1186
I0
sVwidth
p1187
I0
ssVname
p1188
V#ffff00
p1189
sVgeometry
p1190
(dp1191
g101
I0
sg102
I0
sVheight
p1192
I0
sVwidth
p1193
I0
ssVfloating_nodes
p1194
(lp1195
sa(dp1196
Vfullscreen_mode
p1197
I0
sVorientation
p1198
Vhorizontal
p1199
sVfocus
p1200
(lp1201
I11338112
aI11338800
asVurgent
p1202
I00
sVlast_split_layout
p1203
Vsplith
p1204
sVfloating
p1205
Vauto_off
p1206
sVborder
p1207
Vnormal
p1208
sVid
p1209
I11337632
sVcurrent_border_width
p1210
I-1
sVlayout
p1211
Vtabbed
p1212
sVpercent
p1213
F0.7999999999999999
sVworkspace_layout
p1214
Vdefault
p1215
sVwindow
p1216
NsVnodes
p1217
(lp1218
(dp1219
Vfullscreen_mode
p1220
I0
sVorientation
p1221
Vnone
p1222
sg306
S'skype'
p1223
sVfocus
p1224
(lp1225
sVurgent
p1226
I00
sVlast_split_layout
p1227
Vsplith
p1228
sVfloating
p1229
Vauto_off
p1230
sVborder
p1231
Vnormal
p1232
sVid
p1233
I11338800
sVcurrent_border_width
p1234
I-1
sVlayout
p1235
Vsplith
p1236
sVpercent
p1237
F0.5
sVworkspace_layout
p1238
Vdefault
p1239
sVwindow
p1240
I39846329
sVnodes
p1241
(lp1242
sVtype
p1243
I2
sVswallows
p1244
(lp1245
sVfocused
p1246
I00
sVscratchpad_state
p1247
Vnone
p1248
sVrect
p1249
(dp1250
g101
I18
sg102
I410
sVheight
p1251
I1243
sVwidth
p1252
I1638
ssVwindow_rect
p1253
(dp1254
g101
I0
sg102
I2
sVheight
p1255
I1241
sVwidth
p1256
I1634
ssVname
p1257
VMaria - Skype\u2122
p1258
sVgeometry
p1259
(dp1260
g101
I18
sg102
I1026
sVheight
p1261
I1260
sVwidth
p1262
I1020
ssVfloating_nodes
p1263
(lp1264
sa(dp1265
Vfullscreen_mode
p1266
I0
sVorientation
p1267
Vnone
p1268
sg306
S'gnome-terminal'
p1269
sVfocus
p1270
(lp1271
sVurgent
p1272
I00
sVlast_split_layout
p1273
Vsplith
p1274
sVfloating
p1275
Vauto_off
p1276
sVborder
p1277
Vnormal
p1278
sVid
p1279
I11338112
sVcurrent_border_width
p1280
I-1
sVlayout
p1281
Vsplith
p1282
sVpercent
p1283
F0.5
sVworkspace_layout
p1284
Vdefault
p1285
sVwindow
p1286
I23071111
sVnodes
p1287
(lp1288
sVtype
p1289
I2
sVswallows
p1290
(lp1291
sVfocused
p1292
I00
sVscratchpad_state
p1293
Vnone
p1294
sVrect
p1295
(dp1296
g101
I18
sg102
I410
sVheight
p1297
I1243
sVwidth
p1298
I1638
ssVwindow_rect
p1299
(dp1300
g101
I0
sg102
I2
sVheight
p1301
I1241
sVwidth
p1302
I1634
ssVname
p1303
VTerminal
p1304
sVgeometry
p1305
(dp1306
g101
I18
sg102
I0
sVheight
p1307
I1241
sVwidth
p1308
I2044
ssVfloating_nodes
p1309
(lp1310
sasVtype
p1311
I2
sVswallows
p1312
(lp1313
sVfocused
p1314
I00
sVscratchpad_state
p1315
Vnone
p1316
sVrect
p1317
(dp1318
g101
I0
sg102
I410
sVheight
p1319
I1261
sVwidth
p1320
I1638
ssVwindow_rect
p1321
(dp1322
g101
I0
sg102
I0
sVheight
p1323
I0
sVwidth
p1324
I0
ssVname
p1325
V#00ffff
p1326
sVgeometry
p1327
(dp1328
g101
I0
sg102
I0
sVheight
p1329
I0
sVwidth
p1330
I0
ssVfloating_nodes
p1331
(lp1332
sasVtype
p1333
I4
sVswallows
p1334
(lp1335
sVfocused
p1336
I00
sVscratchpad_state
p1337
Vnone
p1338
sVrect
p1339
(dp1340
g101
I0
sg102
I0
sVheight
p1341
I1261
sVwidth
p1342
I2048
ssVwindow_rect
p1343
(dp1344
g101
I0
sg102
I0
sVheight
p1345
I0
sVwidth
p1346
I0
ssVname
p1347
V5 chat
p1348
sVgeometry
p1349
(dp1350
g101
I0
sg102
I0
sVheight
p1351
I0
sVwidth
p1352
I0
ssVfloating_nodes
p1353
(lp1354
sa(dp1355
Vfullscreen_mode
p1356
I0
sVorientation
p1357
Vhorizontal
p1358
sVfocus
p1359
(lp1360
I11355152
asVurgent
p1361
I00
sVnum
p1362
I6
sVlast_split_layout
p1363
Vsplith
p1364
sVfloating
p1365
Vauto_off
p1366
sVborder
p1367
Vnormal
p1368
sVid
p1369
I11352128
sVcurrent_border_width
p1370
I-1
sVlayout
p1371
Vsplith
p1372
sVpercent
p1373
F0.11387295517314638
sVworkspace_layout
p1374
Vdefault
p1375
sVwindow
p1376
NsVnodes
p1377
(lp1378
(dp1379
Vfullscreen_mode
p1380
I0
sVorientation
p1381
Vnone
p1382
sg306
S'chromium-browser'
p1383
sVfocus
p1384
(lp1385
sVurgent
p1386
I00
sVlast_split_layout
p1387
Vsplith
p1388
sVfloating
p1389
Vauto_off
p1390
sVborder
p1391
Vnormal
p1392
sVid
p1393
I11355152
sVcurrent_border_width
p1394
I-1
sVlayout
p1395
Vsplith
p1396
sVpercent
p1397
F1.0
sVworkspace_layout
p1398
Vdefault
p1399
sVwindow
p1400
I35651733
sVnodes
p1401
(lp1402
sVtype
p1403
I2
sVswallows
p1404
(lp1405
sVfocused
p1406
I00
sVscratchpad_state
p1407
Vnone
p1408
sVrect
p1409
(dp1410
g101
I18
sg102
I0
sVheight
p1411
I1243
sVwidth
p1412
I2048
ssVwindow_rect
p1413
(dp1414
g101
I0
sg102
I2
sVheight
p1415
I1241
sVwidth
p1416
I2044
ssVname
p1417
VHomepage - MyFreeCams.com - Chromium
p1418
sVgeometry
p1419
(dp1420
g101
I28
sg102
I12
sVheight
p1421
I1241
sVwidth
p1422
I2044
ssVfloating_nodes
p1423
(lp1424
sasVtype
p1425
I4
sVswallows
p1426
(lp1427
sVfocused
p1428
I00
sVscratchpad_state
p1429
Vnone
p1430
sVrect
p1431
(dp1432
g101
I0
sg102
I0
sVheight
p1433
I1261
sVwidth
p1434
I2048
ssVwindow_rect
p1435
(dp1436
g101
I0
sg102
I0
sVheight
p1437
I0
sVwidth
p1438
I0
ssVname
p1439
V6
p1440
sVgeometry
p1441
(dp1442
g101
I0
sg102
I0
sVheight
p1443
I0
sVwidth
p1444
I0
ssVfloating_nodes
p1445
(lp1446
sa(dp1447
Vfullscreen_mode
p1448
I0
sVorientation
p1449
Vhorizontal
p1450
sVfocus
p1451
(lp1452
I11333520
asVurgent
p1453
I00
sVnum
p1454
I7
sVlast_split_layout
p1455
Vsplith
p1456
sVfloating
p1457
Vauto_off
p1458
sVborder
p1459
Vnormal
p1460
sVid
p1461
I11334176
sVcurrent_border_width
p1462
I-1
sVlayout
p1463
Vsplith
p1464
sVpercent
p1465
F0.1133064230578571
sVworkspace_layout
p1466
Vdefault
p1467
sVwindow
p1468
NsVnodes
p1469
(lp1470
(dp1471
Vfullscreen_mode
p1472
I0
sVorientation
p1473
Vnone
p1474
sg306
S'gnome-terminal'
p1475
sVfocus
p1476
(lp1477
sVurgent
p1478
I00
sVlast_split_layout
p1479
Vsplith
p1480
sVfloating
p1481
Vauto_off
p1482
sVborder
p1483
Vnormal
p1484
sVid
p1485
I11333520
sVcurrent_border_width
p1486
I-1
sVlayout
p1487
Vsplith
p1488
sVpercent
p1489
F1.0
sVworkspace_layout
p1490
Vdefault
p1491
sVwindow
p1492
I23069022
sVnodes
p1493
(lp1494
sVtype
p1495
I2
sVswallows
p1496
(lp1497
sVfocused
p1498
I00
sVscratchpad_state
p1499
Vnone
p1500
sVrect
p1501
(dp1502
g101
I18
sg102
I0
sVheight
p1503
I1243
sVwidth
p1504
I2048
ssVwindow_rect
p1505
(dp1506
g101
I0
sg102
I2
sVheight
p1507
I1241
sVwidth
p1508
I2044
ssVname
p1509
VTerminal
p1510
sVgeometry
p1511
(dp1512
g101
I18
sg102
I0
sVheight
p1513
I1241
sVwidth
p1514
I2044
ssVfloating_nodes
p1515
(lp1516
sasVtype
p1517
I4
sVswallows
p1518
(lp1519
sVfocused
p1520
I00
sVscratchpad_state
p1521
Vnone
p1522
sVrect
p1523
(dp1524
g101
I0
sg102
I0
sVheight
p1525
I1261
sVwidth
p1526
I2048
ssVwindow_rect
p1527
(dp1528
g101
I0
sg102
I0
sVheight
p1529
I0
sVwidth
p1530
I0
ssVname
p1531
V7
p1532
sVgeometry
p1533
(dp1534
g101
I0
sg102
I0
sVheight
p1535
I0
sVwidth
p1536
I0
ssVfloating_nodes
p1537
(lp1538
sa(dp1539
Vfullscreen_mode
p1540
I0
sVorientation
p1541
Vhorizontal
p1542
sVfocus
p1543
(lp1544
I11340512
asVurgent
p1545
I00
sVnum
p1546
I8
sVlast_split_layout
p1547
Vsplith
p1548
sVfloating
p1549
Vauto_off
p1550
sVborder
p1551
Vnormal
p1552
sVid
p1553
I11340000
sVcurrent_border_width
p1554
I-1
sVlayout
p1555
Vsplith
p1556
sVpercent
p1557
F0.1133064230578571
sVworkspace_layout
p1558
Vdefault
p1559
sVwindow
p1560
NsVnodes
p1561
(lp1562
(dp1563
Vfullscreen_mode
p1564
I0
sVorientation
p1565
Vnone
p1566
sg306
S'gparted'
p1567
sVfocus
p1568
(lp1569
sVurgent
p1570
I00
sVlast_split_layout
p1571
Vsplith
p1572
sVfloating
p1573
Vauto_off
p1574
sVborder
p1575
Vnormal
p1576
sVid
p1577
I11340512
sVcurrent_border_width
p1578
I-1
sVlayout
p1579
Vsplith
p1580
sVpercent
p1581
F1.0
sVworkspace_layout
p1582
Vdefault
p1583
sVwindow
p1584
I44040195
sVnodes
p1585
(lp1586
sVtype
p1587
I2
sVswallows
p1588
(lp1589
sVfocused
p1590
I00
sVscratchpad_state
p1591
Vnone
p1592
sVrect
p1593
(dp1594
g101
I18
sg102
I0
sVheight
p1595
I1243
sVwidth
p1596
I2048
ssVwindow_rect
p1597
(dp1598
g101
I0
sg102
I2
sVheight
p1599
I1241
sVwidth
p1600
I2044
ssVname
p1601
V/dev/sdc - GParted
p1602
sVgeometry
p1603
(dp1604
g101
I18
sg102
I0
sVheight
p1605
I1241
sVwidth
p1606
I2044
ssVfloating_nodes
p1607
(lp1608
sasVtype
p1609
I4
sVswallows
p1610
(lp1611
sVfocused
p1612
I00
sVscratchpad_state
p1613
Vnone
p1614
sVrect
p1615
(dp1616
g101
I0
sg102
I0
sVheight
p1617
I1261
sVwidth
p1618
I2048
ssVwindow_rect
p1619
(dp1620
g101
I0
sg102
I0
sVheight
p1621
I0
sVwidth
p1622
I0
ssVname
p1623
V8
p1624
sVgeometry
p1625
(dp1626
g101
I0
sg102
I0
sVheight
p1627
I0
sVwidth
p1628
I0
ssVfloating_nodes
p1629
(lp1630
sa(dp1631
Vfullscreen_mode
p1632
I0
sVorientation
p1633
Vhorizontal
p1634
sVfocus
p1635
(lp1636
I11342912
asVurgent
p1637
I00
sVnum
p1638
I9
sVlast_split_layout
p1639
Vsplith
p1640
sVfloating
p1641
Vauto_off
p1642
sVborder
p1643
Vnormal
p1644
sVid
p1645
I11342432
sVcurrent_border_width
p1646
I-1
sVlayout
p1647
Vsplith
p1648
sVpercent
p1649
F0.09668814767603809
sVworkspace_layout
p1650
Vdefault
p1651
sVwindow
p1652
NsVnodes
p1653
(lp1654
(dp1655
Vfullscreen_mode
p1656
I0
sVorientation
p1657
Vnone
p1658
sg306
S'chromium-browser'
p1659
sVfocus
p1660
(lp1661
sVurgent
p1662
I00
sVlast_split_layout
p1663
Vsplith
p1664
sVfloating
p1665
Vauto_off
p1666
sVborder
p1667
Vnormal
p1668
sVid
p1669
I11342912
sVcurrent_border_width
p1670
I-1
sVlayout
p1671
Vsplith
p1672
sVpercent
p1673
F1.0
sVworkspace_layout
p1674
Vdefault
p1675
sVwindow
p1676
I35651646
sVnodes
p1677
(lp1678
sVtype
p1679
I2
sVswallows
p1680
(lp1681
sVfocused
p1682
I00
sVscratchpad_state
p1683
Vnone
p1684
sVrect
p1685
(dp1686
g101
I18
sg102
I0
sVheight
p1687
I1243
sVwidth
p1688
I2048
ssVwindow_rect
p1689
(dp1690
g101
I0
sg102
I2
sVheight
p1691
I1241
sVwidth
p1692
I2044
ssVname
p1693
VFamily Guy S12 E17 \u2013 The Most Interesting Man in the World | CouchTuner Watch Online - Chromium
p1694
sVgeometry
p1695
(dp1696
g101
I18
sg102
I0
sVheight
p1697
I1241
sVwidth
p1698
I2044
ssVfloating_nodes
p1699
(lp1700
sasVtype
p1701
I4
sVswallows
p1702
(lp1703
sVfocused
p1704
I00
sVscratchpad_state
p1705
Vnone
p1706
sVrect
p1707
(dp1708
g101
I0
sg102
I0
sVheight
p1709
I1261
sVwidth
p1710
I2048
ssVwindow_rect
p1711
(dp1712
g101
I0
sg102
I0
sVheight
p1713
I0
sVwidth
p1714
I0
ssVname
p1715
V9
p1716
sVgeometry
p1717
(dp1718
g101
I0
sg102
I0
sVheight
p1719
I0
sVwidth
p1720
I0
ssVfloating_nodes
p1721
(lp1722
sa(dp1723
Vfullscreen_mode
p1724
I0
sVorientation
p1725
Vhorizontal
p1726
sVfocus
p1727
(lp1728
I11344192
asVurgent
p1729
I00
sVnum
p1730
I10
sVlast_split_layout
p1731
Vsplith
p1732
sVfloating
p1733
Vauto_off
p1734
sVborder
p1735
Vnormal
p1736
sVid
p1737
I11343680
sVcurrent_border_width
p1738
I-1
sVlayout
p1739
Vsplith
p1740
sVpercent
p1741
F0.14503222151405704
sVworkspace_layout
p1742
Vdefault
p1743
sVwindow
p1744
NsVnodes
p1745
(lp1746
(dp1747
Vfullscreen_mode
p1748
I0
sVorientation
p1749
Vnone
p1750
sg306
S'chromium-browser'
p1751
sVfocus
p1752
(lp1753
sVurgent
p1754
I00
sVlast_split_layout
p1755
Vsplith
p1756
sVfloating
p1757
Vauto_off
p1758
sVborder
p1759
Vnormal
p1760
sVid
p1761
I11344192
sVcurrent_border_width
p1762
I-1
sVlayout
p1763
Vsplith
p1764
sVpercent
p1765
F1.0
sVworkspace_layout
p1766
Vdefault
p1767
sVwindow
p1768
I35651647
sVnodes
p1769
(lp1770
sVtype
p1771
I2
sVswallows
p1772
(lp1773
sVfocused
p1774
I00
sVscratchpad_state
p1775
Vnone
p1776
sVrect
p1777
(dp1778
g101
I18
sg102
I0
sVheight
p1779
I1243
sVwidth
p1780
I2048
ssVwindow_rect
p1781
(dp1782
g101
I0
sg102
I2
sVheight
p1783
I1241
sVwidth
p1784
I2044
ssVname
p1785
VGmail \u2013 Kostenlos der Bild-Lieferung widersprechen \u2014 FastMail - Chromium
p1786
sVgeometry
p1787
(dp1788
g101
I18
sg102
I0
sVheight
p1789
I1241
sVwidth
p1790
I2044
ssVfloating_nodes
p1791
(lp1792
sasVtype
p1793
I4
sVswallows
p1794
(lp1795
sVfocused
p1796
I00
sVscratchpad_state
p1797
Vnone
p1798
sVrect
p1799
(dp1800
g101
I0
sg102
I0
sVheight
p1801
I1261
sVwidth
p1802
I2048
ssVwindow_rect
p1803
(dp1804
g101
I0
sg102
I0
sVheight
p1805
I0
sVwidth
p1806
I0
ssVname
p1807
V10 mail
p1808
sVgeometry
p1809
(dp1810
g101
I0
sg102
I0
sVheight
p1811
I0
sVwidth
p1812
I0
ssVfloating_nodes
p1813
(lp1814
sasVtype
p1815
I2
sVswallows
p1816
(lp1817
sVfocused
p1818
I00
sVscratchpad_state
p1819
Vnone
p1820
sVrect
p1821
(dp1822
g101
I0
sg102
I0
sVheight
p1823
I1261
sVwidth
p1824
I2048
ssVwindow_rect
p1825
(dp1826
g101
I0
sg102
I0
sVheight
p1827
I0
sVwidth
p1828
I0
ssVname
p1829
Vcontent
p1830
sVgeometry
p1831
(dp1832
g101
I0
sg102
I0
sVheight
p1833
I0
sVwidth
p1834
I0
ssVfloating_nodes
p1835
(lp1836
sa(dp1837
Vfullscreen_mode
p1838
I0
sVorientation
p1839
Vnone
p1840
sVfocus
p1841
(lp1842
I11353776
asVurgent
p1843
I00
sVlast_split_layout
p1844
Vsplith
p1845
sVfloating
p1846
Vauto_off
p1847
sVborder
p1848
Vnormal
p1849
sVid
p1850
I11345280
sVcurrent_border_width
p1851
I-1
sVlayout
p1852
Vdockarea
p1853
sVpercent
p1854
NsVworkspace_layout
p1855
Vdefault
p1856
sVwindow
p1857
NsVnodes
p1858
(lp1859
(dp1860
Vfullscreen_mode
p1861
I0
sVorientation
p1862
Vnone
p1863
sg306
S'i3bar'
p1864
sVfocus
p1865
(lp1866
sVurgent
p1867
I00
sVlast_split_layout
p1868
Vsplith
p1869
sVfloating
p1870
Vauto_off
p1871
sVborder
p1872
Vnormal
p1873
sVid
p1874
I11353776
sVcurrent_border_width
p1875
I-1
sVlayout
p1876
Vsplith
p1877
sVpercent
p1878
F1.0
sVworkspace_layout
p1879
Vdefault
p1880
sVwindow
p1881
I16777223
sVnodes
p1882
(lp1883
sVtype
p1884
I2
sVswallows
p1885
(lp1886
sVfocused
p1887
I00
sVscratchpad_state
p1888
Vnone
p1889
sVrect
p1890
(dp1891
g101
I1261
sg102
I0
sVheight
p1892
I19
sVwidth
p1893
I2048
ssVwindow_rect
p1894
(dp1895
g101
I0
sg102
I0
sVheight
p1896
I19
sVwidth
p1897
I2048
ssVname
p1898
Vi3bar for output eDP1
p1899
sVgeometry
p1900
(dp1901
g101
I1261
sg102
I0
sVheight
p1902
I19
sVwidth
p1903
I2048
ssVfloating_nodes
p1904
(lp1905
sasVtype
p1906
I5
sVswallows
p1907
(lp1908
(dp1909
Vdock
p1910
I3
sVinsert_where
p1911
I2
sasVfocused
p1912
I00
sVscratchpad_state
p1913
Vnone
p1914
sVrect
p1915
(dp1916
g101
I1261
sg102
I0
sVheight
p1917
I19
sVwidth
p1918
I2048
ssVwindow_rect
p1919
(dp1920
g101
I0
sg102
I0
sVheight
p1921
I0
sVwidth
p1922
I0
ssVname
p1923
Vbottomdock
p1924
sVgeometry
p1925
(dp1926
g101
I0
sg102
I0
sVheight
p1927
I0
sVwidth
p1928
I0
ssVfloating_nodes
p1929
(lp1930
sasVtype
p1931
I1
sVswallows
p1932
(lp1933
sVfocused
p1934
I00
sVscratchpad_state
p1935
Vnone
p1936
sVrect
p1937
(dp1938
g101
I0
sg102
I0
sVheight
p1939
I1280
sVwidth
p1940
I2048
ssVwindow_rect
p1941
(dp1942
g101
I0
sg102
I0
sVheight
p1943
I0
sVwidth
p1944
I0
ssVname
p1945
VeDP1
p1946
sVgeometry
p1947
(dp1948
g101
I0
sg102
I0
sVheight
p1949
I0
sVwidth
p1950
I0
ssVfloating_nodes
p1951
(lp1952
sasVtype
p1953
I0
sVswallows
p1954
(lp1955
sVfocused
p1956
I00
sVscratchpad_state
p1957
Vnone
p1958
sVrect
p1959
(dp1960
g101
I0
sg102
I0
sVheight
p1961
I1280
sVwidth
p1962
I2048
ssVwindow_rect
p1963
(dp1964
g101
I0
sg102
I0
sVheight
p1965
I0
sVwidth
p1966
I0
ssVname
p1967
Vroot
p1968
sVgeometry
p1969
(dp1970
g101
I0
sg102
I0
sVheight
p1971
I0
sVwidth
p1972
I0
ssVfloating_nodes
p1973
(lp1974
s.